; Function Attrs: mustprogress uwtable
define hidden noundef zeroext i1 @_ZN3opt7context10scoped_lexEv(ptr nocapture noundef nonnull readonly align 8 dereferenceable(792) %this) local_unnamed_addr #3 align 2 {
entry:
  %ref.tmp = alloca %class.symbol, align 8
  %m_maxsat_engine = getelementptr inbounds i8, ptr %this, i64 736
  call void @_ZN6symbolC1EPKc(ptr noundef nonnull align 8 dereferenceable(8) %ref.tmp, ptr noundef nonnull @.str.24)
  %0 = load ptr, ptr %m_maxsat_engine, align 8
  %1 = load ptr, ptr %ref.tmp, align 8
  %cmp.i = icmp eq ptr %0, %1
  br i1 %cmp.i, label %if.then, label %return

if.then:                                          ; preds = %entry
  %m_objectives = getelementptr inbounds i8, ptr %this, i64 592
  %2 = load ptr, ptr %m_objectives, align 8
  %cmp.i.i = icmp eq ptr %2, null
  br i1 %cmp.i.i, label %return, label %_ZN6vectorIN3opt7context9objectiveELb1EjE3endEv.exit

_ZN6vectorIN3opt7context9objectiveELb1EjE3endEv.exit: ; preds = %if.then
  %arrayidx.i.i = getelementptr inbounds i8, ptr %2, i64 -4
  %3 = load i32, ptr %arrayidx.i.i, align 4
  %4 = zext i32 %3 to i64
  %add.ptr.i = getelementptr inbounds %"struct.opt::context::objective", ptr %2, i64 %4
  %cmp.not4 = icmp eq i32 %3, 0
  br i1 %cmp.not4, label %return, label %for.body

for.body:                                         ; preds = %_ZN6vectorIN3opt7context9objectiveELb1EjE3endEv.exit, %for.body
  %__begin2.05 = phi ptr [ %incdec.ptr, %for.body ], [ %2, %_ZN6vectorIN3opt7context9objectiveELb1EjE3endEv.exit ]
  %5 = load i32, ptr %__begin2.05, align 8
  %cmp4.not.not = icmp ne i32 %5, 2
  %incdec.ptr = getelementptr inbounds i8, ptr %__begin2.05, i64 104
  %cmp.not = icmp eq ptr %incdec.ptr, %add.ptr.i
  %or.cond = select i1 %cmp4.not.not, i1 true, i1 %cmp.not
  br i1 %or.cond, label %return, label %for.body

return:                                           ; preds = %for.body, %if.then, %_ZN6vectorIN3opt7context9objectiveELb1EjE3endEv.exit, %entry
  %retval.0 = phi i1 [ true, %entry ], [ false, %_ZN6vectorIN3opt7context9objectiveELb1EjE3endEv.exit ], [ false, %if.then ], [ %cmp4.not.not, %for.body ]
  ret i1 %retval.0
}